(itree_components
Multiply
p0
(dp1
S'right'
p2
(itree_components
Add
p3
(dp4
g2
(itree_components
Multiply
p5
(dp6
g2
(itree_components
Add
p7
(dp8
g2
(itree_components
Num
p9
(dp10
S'val'
p11
I73
sbsS'left'
p12
(itree_components
Num
p13
(dp14
g11
I69
sbsbsg12
(itree_components
Multiply
p15
(dp16
g2
(itree_components
Num
p17
(dp18
g11
I10
sbsg12
(itree_components
Num
p19
(dp20
g11
I90
sbsbsbsg12
(itree_components
Add
p21
(dp22
g2
(itree_components
Add
p23
(dp24
g2
(itree_components
Num
p25
(dp26
g11
I18
sbsg12
(itree_components
Num
p27
(dp28
g11
I96
sbsbsg12
(itree_components
Add
p29
(dp30
g2
(itree_components
Num
p31
(dp32
g11
I18
sbsg12
(itree_components
Num
p33
(dp34
g11
I24
sbsbsbsbsg12
(itree_components
Add
p35
(dp36
g2
(itree_components
Multiply
p37
(dp38
g2
(itree_components
Multiply
p39
(dp40
g2
(itree_components
Num
p41
(dp42
g11
I15
sbsg12
(itree_components
Num
p43
(dp44
g11
I90
sbsbsg12
(itree_components
Add
p45
(dp46
g2
(itree_components
Num
p47
(dp48
g11
I84
sbsg12
(itree_components
Num
p49
(dp50
g11
I2
sbsbsbsg12
(itree_components
Multiply
p51
(dp52
g2
(itree_components
Add
p53
(dp54
g2
(itree_components
Num
p55
(dp56
g11
I99
sbsg12
(itree_components
Num
p57
(dp58
g11
I46
sbsbsg12
(itree_components
Multiply
p59
(dp60
g2
(itree_components
Num
p61
(dp62
g11
I4
sbsg12
(itree_components
Num
p63
(dp64
g11
I49
sbsbsbsbsb.