(itree_components
Add
p0
(dp1
S'right'
p2
(itree_components
Multiply
p3
(dp4
g2
(itree_components
Multiply
p5
(dp6
g2
(itree_components
Multiply
p7
(dp8
g2
(itree_components
Num
p9
(dp10
S'val'
p11
I37
sbsS'left'
p12
(itree_components
Num
p13
(dp14
g11
I57
sbsbsg12
(itree_components
Add
p15
(dp16
g2
(itree_components
Num
p17
(dp18
g11
I94
sbsg12
(itree_components
Num
p19
(dp20
g11
I14
sbsbsbsg12
(itree_components
Add
p21
(dp22
g2
(itree_components
Add
p23
(dp24
g2
(itree_components
Num
p25
(dp26
g11
I6
sbsg12
(itree_components
Num
p27
(dp28
g11
I2
sbsbsg12
(itree_components
Multiply
p29
(dp30
g2
(itree_components
Num
p31
(dp32
g11
I93
sbsg12
(itree_components
Num
p33
(dp34
g11
I19
sbsbsbsbsg12
(itree_components
Add
p35
(dp36
g2
(itree_components
Add
p37
(dp38
g2
(itree_components
Multiply
p39
(dp40
g2
(itree_components
Num
p41
(dp42
g11
I95
sbsg12
(itree_components
Num
p43
(dp44
g11
I4
sbsbsg12
(itree_components
Add
p45
(dp46
g2
(itree_components
Num
p47
(dp48
g11
I90
sbsg12
(itree_components
Num
p49
(dp50
g11
I89
sbsbsbsg12
(itree_components
Add
p51
(dp52
g2
(itree_components
Multiply
p53
(dp54
g2
(itree_components
Num
p55
(dp56
g11
I71
sbsg12
(itree_components
Num
p57
(dp58
g11
I47
sbsbsg12
(itree_components
Add
p59
(dp60
g2
(itree_components
Num
p61
(dp62
g11
I72
sbsg12
(itree_components
Num
p63
(dp64
g11
I99
sbsbsbsbsb.